; Function Attrs: mustprogress nofree norecurse nosync nounwind memory(readwrite, inaccessiblemem: none) uwtable
define hidden noundef i32 @_ZN5zxing30AdaptiveThresholdMeanBinarizer16TransBufferToMatEPhRN2cv3MatEii(ptr noundef nonnull readnone align 8 captures(none) dereferenceable(121) %0, ptr noundef readonly captures(none) %1, ptr noundef nonnull readonly align 8 captures(none) dereferenceable(96) %2, i32 noundef %3, i32 noundef %4) local_unnamed_addr #8 align 2 {
  %6 = icmp sgt i32 %4, 0
  br i1 %6, label %.lr.ph, label %._crit_edge

.lr.ph:                                           ; preds = %5
  %7 = getelementptr inbounds nuw i8, ptr %2, i64 16
  %8 = getelementptr inbounds nuw i8, ptr %2, i64 72
  %9 = sext i32 %3 to i64
  %10 = zext nneg i32 %4 to i64
  %wide.trip.count = zext nneg i32 %4 to i64
  br label %11

._crit_edge:                                      ; preds = %11, %5
  ret i32 0

11:                                               ; preds = %.lr.ph, %11
  %indvars.iv = phi i64 [ 0, %.lr.ph ], [ %indvars.iv.next, %11 ]
  %12 = load ptr, ptr %7, align 8, !tbaa !52
  %13 = load ptr, ptr %8, align 8, !tbaa !53
  %14 = load i64, ptr %13, align 8, !tbaa !54
  %15 = mul i64 %14, %indvars.iv
  %16 = getelementptr inbounds nuw i8, ptr %12, i64 %15
  %17 = xor i64 %indvars.iv, -1
  %18 = add nsw i64 %10, %17
  %19 = mul nsw i64 %18, %9
  %20 = getelementptr inbounds i8, ptr %1, i64 %19
  tail call void @llvm.memcpy.p0.p0.i64(ptr align 1 %16, ptr align 1 %20, i64 %9, i1 false)
  %indvars.iv.next = add nuw nsw i64 %indvars.iv, 1
  %exitcond.not = icmp eq i64 %indvars.iv.next, %wide.trip.count
  br i1 %exitcond.not, label %._crit_edge, label %11, !llvm.loop !56
}